target datalayout = "e-m:e-p270:32:32-p271:32:32-p272:64:64-i64:64-i128:128-f80:128-n8:16:32:64-S128"
target triple = "x86_64-pc-linux-gnu"

%class.symbol = type { ptr }
%"class.intblast::translator_trail" = type { %class.bv2int_translator_trail, ptr }
%class.bv2int_translator_trail = type { ptr }
%"class.sat::extension" = type { ptr, i8, i32, %class.symbol, ptr }
%"class.euf::th_internalizer" = type { ptr, %class.ptr_vector, %class.svector }
%class.ptr_vector = type { %class.vector }
%class.vector = type { ptr }
%class.svector = type { %class.vector.0 }
%class.vector.0 = type { ptr }
%"class.euf::th_decompile" = type { ptr }
%class.ptr_vector.24 = type { %class.vector.25 }
%class.vector.25 = type { ptr }
%class.svector.5 = type { %class.vector.6 }
%class.vector.6 = type { ptr }
%class.arith_util = type { ptr, ptr }
%class.bv_util = type { %class.bv_recognizers, ptr, ptr }
%class.bv_recognizers = type { i32 }
%class.ref_vector.85 = type { %class.ref_vector_core.86 }
%class.ref_vector_core.86 = type { %class.ref_manager_wrapper.87, %class.ptr_vector.88 }
%class.ref_manager_wrapper.87 = type { ptr }
%class.ptr_vector.88 = type { %class.vector.89 }
%class.vector.89 = type { ptr }
%class.scoped_ptr.97 = type { ptr }
%class.statistics = type { %class.svector.135, %class.svector.137 }
%class.svector.135 = type { %class.vector.136 }
%class.vector.136 = type { ptr }
%class.svector.137 = type { %class.vector.138 }
%class.vector.138 = type { ptr }
%class.svector.59 = type { %class.vector.60 }
%class.vector.60 = type { ptr }
%class.ref_vector = type { %class.ref_vector_core }
%class.ref_vector_core = type { %class.ref_manager_wrapper, %class.ptr_vector.24 }
%class.ref_manager_wrapper = type { ptr }
%"class.intblast::solver" = type <{ %"class.euf::th_euf_solver.base", [4 x i8], ptr, ptr, ptr, %class.bv_util, %class.arith_util, %"class.intblast::translator_trail", %class.bv2int_translator, %class.scoped_ptr.97, %class.svector.59, %class.statistics, i8, [3 x i8], i32, i32, [4 x i8] }>
%"class.euf::th_euf_solver.base" = type <{ %"class.euf::th_solver", ptr, %class.ptr_vector, %class.svector.5, i32 }>
%"class.euf::th_solver" = type { %"class.sat::extension", %"class.euf::th_model_builder", %"class.euf::th_decompile", %"class.euf::th_internalizer", ptr }
%"class.euf::th_model_builder" = type { ptr }
%class.bv2int_translator = type <{ ptr, ptr, %class.bv_util, %class.arith_util, %class.obj_map.155, %class.ref_vector, %class.ref_vector, %class.ref_vector.85, %class.ptr_vector.160, %class.ptr_vector.160, %class.ref_vector, %class.ref_vector, i8, [7 x i8] }>
%class.obj_map.155 = type { %class.core_hashtable.156 }
%class.core_hashtable.156 = type <{ ptr, i32, i32, i32, [4 x i8] }>
%class.ptr_vector.160 = type { %class.vector.161 }
%class.vector.161 = type { ptr }

; Function Attrs: mustprogress uwtable
define hidden void @_ZN8intblast6solver9add_valueEPN3euf5enodeER5modelR10ref_vectorI4expr11ast_managerE(ptr noundef nonnull align 8 dereferenceable(420) %0, ptr noundef %1, ptr noundef nonnull align 8 dereferenceable(160) %2, ptr noundef nonnull align 8 dereferenceable(16) %3) unnamed_addr #4 align 2 {
  %5 = alloca ptr, align 8
  %6 = alloca ptr, align 8
  %7 = alloca ptr, align 8
  %8 = alloca ptr, align 8
  store ptr %0, ptr %5, align 8, !tbaa !19
  store ptr %1, ptr %6, align 8, !tbaa !433
  store ptr %2, ptr %7, align 8, !tbaa !596
  store ptr %3, ptr %8, align 8, !tbaa !467
  %9 = load ptr, ptr %5, align 8
  %10 = getelementptr inbounds nuw %"class.intblast::solver", ptr %9, i32 0, i32 12
  %11 = load i8, ptr %10, align 8, !tbaa !86, !range !440, !noundef !441
  %12 = trunc i8 %11 to i1
  br i1 %12, label %13, label %17

13:                                               ; preds = %4
  %14 = load ptr, ptr %6, align 8, !tbaa !433
  %15 = load ptr, ptr %7, align 8, !tbaa !596
  %16 = load ptr, ptr %8, align 8, !tbaa !467
  call void @_ZN8intblast6solver16add_value_pluginEPN3euf5enodeER5modelR10ref_vectorI4expr11ast_managerE(ptr noundef nonnull align 8 dereferenceable(420) %9, ptr noundef %14, ptr noundef nonnull align 8 dereferenceable(160) %15, ptr noundef nonnull align 8 dereferenceable(16) %16)
  br label %21

17:                                               ; preds = %4
  %18 = load ptr, ptr %6, align 8, !tbaa !433
  %19 = load ptr, ptr %7, align 8, !tbaa !596
  %20 = load ptr, ptr %8, align 8, !tbaa !467
  call void @_ZN8intblast6solver16add_value_solverEPN3euf5enodeER5modelR10ref_vectorI4expr11ast_managerE(ptr noundef nonnull align 8 dereferenceable(420) %9, ptr noundef %18, ptr noundef nonnull align 8 dereferenceable(160) %19, ptr noundef nonnull align 8 dereferenceable(16) %20)
  br label %21

21:                                               ; preds = %17, %13
  ret void
}