; Function Attrs: mustprogress uwtable
define hidden void @_ZN8intblast6solver9add_valueEPN3euf5enodeER5modelR10ref_vectorI4expr11ast_managerE(ptr noundef nonnull align 8 dereferenceable(420) %0, ptr noundef captures(address) %1, ptr noundef nonnull readnone align 8 captures(none) dereferenceable(160) %2, ptr noundef nonnull align 8 dereferenceable(16) %3) unnamed_addr #3 align 2 {
  %5 = getelementptr inbounds nuw i8, ptr %0, i64 408
  %6 = load i8, ptr %5, align 8, !tbaa !419, !range !572, !noundef !570
  %7 = trunc nuw i8 %6 to i1
  br i1 %7, label %8, label %9

8:                                                ; preds = %4
  tail call void @_ZN8intblast6solver16add_value_pluginEPN3euf5enodeER5modelR10ref_vectorI4expr11ast_managerE(ptr noundef nonnull align 8 dereferenceable(420) %0, ptr noundef %1, ptr nonnull align 8 poison, ptr noundef nonnull align 8 dereferenceable(16) %3)
  br label %10

9:                                                ; preds = %4
  tail call void @_ZN8intblast6solver16add_value_solverEPN3euf5enodeER5modelR10ref_vectorI4expr11ast_managerE(ptr noundef nonnull align 8 dereferenceable(420) %0, ptr noundef %1, ptr nonnull align 8 poison, ptr noundef nonnull align 8 dereferenceable(16) %3)
  br label %10

10:                                               ; preds = %9, %8
  ret void
}